target datalayout = "e-m:e-p270:32:32-p271:32:32-p272:64:64-i64:64-i128:128-f80:128-n8:16:32:64-S128"
target triple = "x86_64-pc-linux-gnu"

; Function Attrs: nounwind uwtable
define dso_local void @put_be16(ptr noundef %0, i16 noundef zeroext %1) #0 {
  %3 = alloca ptr, align 8
  %4 = alloca i16, align 2
  store ptr %0, ptr %3, align 8, !tbaa !10
  store i16 %1, ptr %4, align 2, !tbaa !24
  %5 = load i16, ptr %4, align 2, !tbaa !24
  %6 = zext i16 %5 to i32
  %7 = ashr i32 %6, 8
  %8 = and i32 %7, 255
  %9 = trunc i32 %8 to i8
  %10 = load ptr, ptr %3, align 8, !tbaa !10
  %11 = getelementptr inbounds i8, ptr %10, i64 0
  store i8 %9, ptr %11, align 1, !tbaa !19
  %12 = load i16, ptr %4, align 2, !tbaa !24
  %13 = zext i16 %12 to i32
  %14 = and i32 %13, 255
  %15 = trunc i32 %14 to i8
  %16 = load ptr, ptr %3, align 8, !tbaa !10
  %17 = getelementptr inbounds i8, ptr %16, i64 1
  store i8 %15, ptr %17, align 1, !tbaa !19
  ret void
}