; Function Attrs: mustprogress nofree norecurse nosync nounwind willreturn memory(argmem: write) uwtable
define dso_local void @put_be16(ptr noundef writeonly captures(none) initializes((0, 2)) %0, i16 noundef zeroext %1) local_unnamed_addr #8 {
  %3 = lshr i16 %1, 8
  %4 = trunc nuw i16 %3 to i8
  store i8 %4, ptr %0, align 1, !tbaa !14
  %5 = trunc i16 %1 to i8
  %6 = getelementptr inbounds nuw i8, ptr %0, i64 1
  store i8 %5, ptr %6, align 1, !tbaa !14
  ret void
}